target datalayout = "e-m:e-p270:32:32-p271:32:32-p272:64:64-i64:64-i128:128-f80:128-n8:16:32:64-S128"
target triple = "x86_64-pc-linux-gnu"

%struct.ObjectAddress = type { i32, i32, i32 }
%struct.RuleStmt = type { i32, ptr, ptr, ptr, i32, i8, ptr, i8 }

; Function Attrs: nounwind uwtable
define dso_local { i64, i32 } @DefineRule(ptr noundef %0, ptr noundef %1) #0 {
  %3 = alloca %struct.ObjectAddress, align 4
  %4 = alloca ptr, align 8
  %5 = alloca ptr, align 8
  %6 = alloca ptr, align 8
  %7 = alloca ptr, align 8
  %8 = alloca i32, align 4
  %9 = alloca { i64, i32 }, align 8
  %10 = alloca { i64, i32 }, align 8
  store ptr %0, ptr %4, align 8
  store ptr %1, ptr %5, align 8
  call void @llvm.lifetime.start.p0(i64 8, ptr %6) #8
  call void @llvm.lifetime.start.p0(i64 8, ptr %7) #8
  call void @llvm.lifetime.start.p0(i64 4, ptr %8) #8
  %11 = load ptr, ptr %4, align 8
  %12 = load ptr, ptr %5, align 8
  call void @transformRuleStmt(ptr noundef %11, ptr noundef %12, ptr noundef %6, ptr noundef %7)
  %13 = load ptr, ptr %4, align 8
  %14 = getelementptr inbounds nuw %struct.RuleStmt, ptr %13, i32 0, i32 1
  %15 = load ptr, ptr %14, align 8
  %16 = call i32 @RangeVarGetRelidExtended(ptr noundef %15, i32 noundef 8, i32 noundef 0, ptr noundef null, ptr noundef null)
  store i32 %16, ptr %8, align 4
  %17 = load ptr, ptr %4, align 8
  %18 = getelementptr inbounds nuw %struct.RuleStmt, ptr %17, i32 0, i32 2
  %19 = load ptr, ptr %18, align 8
  %20 = load i32, ptr %8, align 4
  %21 = load ptr, ptr %7, align 8
  %22 = load ptr, ptr %4, align 8
  %23 = getelementptr inbounds nuw %struct.RuleStmt, ptr %22, i32 0, i32 4
  %24 = load i32, ptr %23, align 8
  %25 = load ptr, ptr %4, align 8
  %26 = getelementptr inbounds nuw %struct.RuleStmt, ptr %25, i32 0, i32 5
  %27 = load i8, ptr %26, align 4, !range !4, !noundef !5
  %28 = trunc i8 %27 to i1
  %29 = load ptr, ptr %4, align 8
  %30 = getelementptr inbounds nuw %struct.RuleStmt, ptr %29, i32 0, i32 7
  %31 = load i8, ptr %30, align 8, !range !4, !noundef !5
  %32 = trunc i8 %31 to i1
  %33 = load ptr, ptr %6, align 8
  %34 = call { i64, i32 } @DefineQueryRewrite(ptr noundef %19, i32 noundef %20, ptr noundef %21, i32 noundef %24, i1 noundef zeroext %28, i1 noundef zeroext %32, ptr noundef %33)
  store { i64, i32 } %34, ptr %9, align 8
  call void @llvm.memcpy.p0.p0.i64(ptr align 4 %3, ptr align 8 %9, i64 12, i1 false)
  call void @llvm.lifetime.end.p0(i64 4, ptr %8) #8
  call void @llvm.lifetime.end.p0(i64 8, ptr %7) #8
  call void @llvm.lifetime.end.p0(i64 8, ptr %6) #8
  call void @llvm.memcpy.p0.p0.i64(ptr align 8 %10, ptr align 4 %3, i64 12, i1 false)
  %35 = load { i64, i32 }, ptr %10, align 8
  ret { i64, i32 } %35
}