; Function Attrs: nounwind uwtable
define dso_local { i64, i32 } @DefineRule(ptr noundef %0, ptr noundef %1) local_unnamed_addr #0 {
  %3 = alloca ptr, align 8
  %4 = alloca ptr, align 8
  call void @llvm.lifetime.start.p0(i64 8, ptr nonnull %3) #6
  call void @llvm.lifetime.start.p0(i64 8, ptr nonnull %4) #6
  call void @transformRuleStmt(ptr noundef %0, ptr noundef %1, ptr noundef nonnull %3, ptr noundef nonnull %4) #6
  %5 = getelementptr inbounds nuw i8, ptr %0, i64 8
  %6 = load ptr, ptr %5, align 8
  %7 = call i32 @RangeVarGetRelidExtended(ptr noundef %6, i32 noundef 8, i32 noundef 0, ptr noundef null, ptr noundef null) #6
  %8 = getelementptr inbounds nuw i8, ptr %0, i64 16
  %9 = load ptr, ptr %8, align 8
  %10 = load ptr, ptr %4, align 8
  %11 = getelementptr inbounds nuw i8, ptr %0, i64 32
  %12 = load i32, ptr %11, align 8
  %13 = getelementptr inbounds nuw i8, ptr %0, i64 36
  %14 = load i8, ptr %13, align 4, !range !4, !noundef !5
  %15 = trunc nuw i8 %14 to i1
  %16 = getelementptr inbounds nuw i8, ptr %0, i64 48
  %17 = load i8, ptr %16, align 8, !range !4, !noundef !5
  %18 = trunc nuw i8 %17 to i1
  %19 = load ptr, ptr %3, align 8
  %20 = call { i64, i32 } @DefineQueryRewrite(ptr noundef %9, i32 noundef %7, ptr noundef %10, i32 noundef %12, i1 noundef zeroext %15, i1 noundef zeroext %18, ptr noundef %19)
  call void @llvm.lifetime.end.p0(i64 8, ptr nonnull %4) #6
  call void @llvm.lifetime.end.p0(i64 8, ptr nonnull %3) #6
  ret { i64, i32 } %20
}